target datalayout = "e-m:e-p270:32:32-p271:32:32-p272:64:64-i64:64-i128:128-f80:128-n8:16:32:64-S128"
target triple = "x86_64-unknown-linux-gnu"

; Function Attrs: nounwind uwtable
define internal i32 @config_prof_libgcc_ctl(ptr noundef %tsd, ptr noundef %mib, i64 noundef %miblen, ptr noundef %oldp, ptr noundef %oldlenp, ptr noundef %newp, i64 noundef %newlen) #0 {
entry:
  %tsd.addr = alloca ptr, align 8
  %mib.addr = alloca ptr, align 8
  %miblen.addr = alloca i64, align 8
  %oldp.addr = alloca ptr, align 8
  %oldlenp.addr = alloca ptr, align 8
  %newp.addr = alloca ptr, align 8
  %newlen.addr = alloca i64, align 8
  %ret = alloca i32, align 4
  %oldval = alloca i8, align 1
  %copylen = alloca i64, align 8
  store ptr %tsd, ptr %tsd.addr, align 8
  store ptr %mib, ptr %mib.addr, align 8
  store i64 %miblen, ptr %miblen.addr, align 8
  store ptr %oldp, ptr %oldp.addr, align 8
  store ptr %oldlenp, ptr %oldlenp.addr, align 8
  store ptr %newp, ptr %newp.addr, align 8
  store i64 %newlen, ptr %newlen.addr, align 8
  br label %do.body

do.body:                                          ; preds = %entry
  %0 = load ptr, ptr %newp.addr, align 8
  %cmp = icmp ne ptr %0, null
  br i1 %cmp, label %if.then, label %lor.lhs.false

lor.lhs.false:                                    ; preds = %do.body
  %1 = load i64, ptr %newlen.addr, align 8
  %cmp1 = icmp ne i64 %1, 0
  br i1 %cmp1, label %if.then, label %if.end

if.then:                                          ; preds = %lor.lhs.false, %do.body
  store i32 1, ptr %ret, align 4
  br label %label_return

if.end:                                           ; preds = %lor.lhs.false
  br label %do.end

do.end:                                           ; preds = %if.end
  store i8 0, ptr %oldval, align 1
  br label %do.body2

do.body2:                                         ; preds = %do.end
  %2 = load ptr, ptr %oldp.addr, align 8
  %cmp3 = icmp ne ptr %2, null
  br i1 %cmp3, label %land.lhs.true, label %if.end10

land.lhs.true:                                    ; preds = %do.body2
  %3 = load ptr, ptr %oldlenp.addr, align 8
  %cmp4 = icmp ne ptr %3, null
  br i1 %cmp4, label %if.then5, label %if.end10

if.then5:                                         ; preds = %land.lhs.true
  %4 = load ptr, ptr %oldlenp.addr, align 8
  %5 = load i64, ptr %4, align 8
  %cmp6 = icmp ne i64 %5, 1
  br i1 %cmp6, label %if.then7, label %if.end9

if.then7:                                         ; preds = %if.then5
  %6 = load ptr, ptr %oldlenp.addr, align 8
  %7 = load i64, ptr %6, align 8
  %cmp8 = icmp ule i64 1, %7
  br i1 %cmp8, label %cond.true, label %cond.false

cond.true:                                        ; preds = %if.then7
  br label %cond.end

cond.false:                                       ; preds = %if.then7
  %8 = load ptr, ptr %oldlenp.addr, align 8
  %9 = load i64, ptr %8, align 8
  br label %cond.end

cond.end:                                         ; preds = %cond.false, %cond.true
  %cond = phi i64 [ 1, %cond.true ], [ %9, %cond.false ]
  store i64 %cond, ptr %copylen, align 8
  %10 = load ptr, ptr %oldp.addr, align 8
  %11 = load i64, ptr %copylen, align 8
  call void @llvm.memcpy.p0.p0.i64(ptr align 1 %10, ptr align 1 %oldval, i64 %11, i1 false)
  %12 = load i64, ptr %copylen, align 8
  %13 = load ptr, ptr %oldlenp.addr, align 8
  store i64 %12, ptr %13, align 8
  store i32 22, ptr %ret, align 4
  br label %label_return

if.end9:                                          ; preds = %if.then5
  %14 = load i8, ptr %oldval, align 1
  %tobool = trunc i8 %14 to i1
  %15 = load ptr, ptr %oldp.addr, align 8
  %frombool = zext i1 %tobool to i8
  store i8 %frombool, ptr %15, align 1
  br label %if.end10

if.end10:                                         ; preds = %if.end9, %land.lhs.true, %do.body2
  br label %do.end11

do.end11:                                         ; preds = %if.end10
  store i32 0, ptr %ret, align 4
  br label %label_return

label_return:                                     ; preds = %do.end11, %cond.end, %if.then
  %16 = load i32, ptr %ret, align 4
  ret i32 %16
}